#include <math.h>
#include <stdio.h>
#include <stdlib.h>
#include <string.h>

void main()
{
	char str[100],substr[100],max,a[100],b[100];
	int i,j,k,m,n,t;
	
	while(scanf("%s %s",str,substr)!=EOF)
	{
	
	m=strlen(str);
	max=str[0];
	for(i=0;i<m;i++)
		if(str[i]>max)
		{
			max=str[i];
			t=i;
		}
		strcpy(b,str);
		b[t+1]='\0';
		strcpy(a,b);
		strcat(a,substr);
		n=strlen(a);
		for(i=1;i<m-t;i++)
			a[n+i-1]=str[t+i];
		a[n+i-1]='\0';
		

		printf("%s\n",a);
	}
	




}
